target datalayout = "e-m:e-p270:32:32-p271:32:32-p272:64:64-i64:64-i128:128-f80:128-n8:16:32:64-S128"
target triple = "x86_64-pc-linux-gnu"

%struct.Settings = type { i32, i32, i32, float, i32, i32, i8, i8, i8, i8, i8, i8, i8, i8, i8, i8, i8, i8, i8, i8, i8, i8, i8, i8, i8, i8 }
%struct.Camera = type { %struct.b2Vec2, float, i32, i32 }
%struct.b2Vec2 = type { float, float }
%class.Draw = type { i8, ptr, ptr, ptr, ptr, ptr, ptr, ptr, ptr, %struct.b2DebugDraw, ptr, ptr, ptr, ptr }
%struct.b2DebugDraw = type { ptr, ptr, ptr, ptr, ptr, ptr, ptr, ptr, ptr, %struct.b2AABB, i8, i8, i8, i8, i8, i8, i8, i8, i8, i8, i8, i8, ptr }
%struct.b2AABB = type { %struct.b2Vec2, %struct.b2Vec2 }
%struct.SampleEntry = type { ptr, ptr, ptr }
%struct.ImVec2 = type { float, float }
%struct.ImGuiIO = type { i32, i32, %struct.ImVec2, float, float, ptr, ptr, ptr, ptr, float, i8, ptr, %struct.ImVec2, i8, i8, i8, i8, i8, i8, i8, i8, i8, i8, float, float, float, float, float, float, i8, i8, i8, i8, i8, i8, i8, i8, i8, i8, ptr, ptr, ptr, ptr, ptr, i8, i8, i8, i8, i8, i8, i8, float, i32, i32, i32, i32, %struct.ImVec2, ptr, %struct.ImVec2, [5 x i8], float, float, i32, i8, i8, i8, i8, i32, [154 x %struct.ImGuiKeyData], i8, %struct.ImVec2, [5 x %struct.ImVec2], [5 x double], [5 x i8], [5 x i8], [5 x i16], [5 x i16], [5 x i8], [5 x i8], [5 x i8], i8, i8, [5 x float], [5 x float], [5 x float], float, i8, i8, i8, i8, i16, %struct.ImVector }
%struct.ImGuiKeyData = type { i8, float, float, float }
%struct.ImVector = type { i32, i32, ptr }

@g_mainWindow = dso_local global ptr null, align 8
@_ZL10s_settings = internal global %struct.Settings { i32 0, i32 1920, i32 1080, float 6.000000e+01, i32 4, i32 1, i8 0, i8 1, i8 1, i8 0, i8 0, i8 0, i8 0, i8 0, i8 0, i8 0, i8 0, i8 0, i8 0, i8 0, i8 1, i8 1, i8 1, i8 0, i8 0, i8 0 }, align 4
@g_camera = external global %struct.Camera, align 4
@g_draw = external global %class.Draw, align 8
@g_sampleCount = external global i32, align 4
@_ZL11s_selection = internal global i32 0, align 4
@_ZL8s_sample = internal global ptr null, align 8
@g_sampleEntries = external global [256 x %struct.SampleEntry], align 16
@__const._ZL11KeyCallbackP10GLFWwindowiiii.newOrigin = private unnamed_addr constant %struct.b2Vec2 { float 2.000000e+00, float 0.000000e+00 }, align 4
@__const._ZL11KeyCallbackP10GLFWwindowiiii.newOrigin.12 = private unnamed_addr constant %struct.b2Vec2 { float -2.000000e+00, float 0.000000e+00 }, align 4
@__const._ZL11KeyCallbackP10GLFWwindowiiii.newOrigin.13 = private unnamed_addr constant %struct.b2Vec2 { float 0.000000e+00, float 2.000000e+00 }, align 4
@__const._ZL11KeyCallbackP10GLFWwindowiiii.newOrigin.14 = private unnamed_addr constant %struct.b2Vec2 { float 0.000000e+00, float -2.000000e+00 }, align 4

; Function Attrs: mustprogress uwtable
define internal void @_ZL13RestartSamplev() #5 {
  %1 = load ptr, ptr @_ZL8s_sample, align 8, !tbaa !62
  %2 = icmp eq ptr %1, null
  br i1 %2, label %7, label %3

3:                                                ; preds = %0
  %4 = load ptr, ptr %1, align 8, !tbaa !82
  %5 = getelementptr inbounds ptr, ptr %4, i64 1
  %6 = load ptr, ptr %5, align 8
  call void %6(ptr noundef nonnull align 8 dereferenceable(248) %1) #14
  br label %7

7:                                                ; preds = %3, %0
  store ptr null, ptr @_ZL8s_sample, align 8, !tbaa !62
  store i8 1, ptr getelementptr inbounds nuw (%struct.Settings, ptr @_ZL10s_settings, i32 0, i32 25), align 1, !tbaa !127
  %8 = load i32, ptr @_ZL10s_settings, align 4, !tbaa !43
  %9 = sext i32 %8 to i64
  %10 = getelementptr inbounds [256 x %struct.SampleEntry], ptr @g_sampleEntries, i64 0, i64 %9
  %11 = getelementptr inbounds nuw %struct.SampleEntry, ptr %10, i32 0, i32 2
  %12 = load ptr, ptr %11, align 8, !tbaa !64
  %13 = call noundef ptr %12(ptr noundef nonnull align 4 dereferenceable(44) @_ZL10s_settings)
  store ptr %13, ptr @_ZL8s_sample, align 8, !tbaa !62
  store i8 0, ptr getelementptr inbounds nuw (%struct.Settings, ptr @_ZL10s_settings, i32 0, i32 25), align 1, !tbaa !127
  ret void
}

; Function Attrs: mustprogress uwtable
define internal void @_ZL11KeyCallbackP10GLFWwindowiiii(ptr noundef %0, i32 noundef %1, i32 noundef %2, i32 noundef %3, i32 noundef %4) #10 {
  %6 = alloca ptr, align 8
  %7 = alloca i32, align 4
  %8 = alloca i32, align 4
  %9 = alloca i32, align 4
  %10 = alloca i32, align 4
  %11 = alloca %struct.b2Vec2, align 4
  %12 = alloca %struct.b2Vec2, align 4
  %13 = alloca %struct.b2Vec2, align 4
  %14 = alloca %struct.b2Vec2, align 4
  %15 = alloca %struct.b2Vec2, align 4
  %16 = alloca %struct.b2Vec2, align 4
  %17 = alloca %struct.b2Vec2, align 4
  %18 = alloca %struct.b2Vec2, align 4
  store ptr %0, ptr %6, align 8, !tbaa !38
  store i32 %1, ptr %7, align 4, !tbaa !4
  store i32 %2, ptr %8, align 4, !tbaa !4
  store i32 %3, ptr %9, align 4, !tbaa !4
  store i32 %4, ptr %10, align 4, !tbaa !4
  %19 = load ptr, ptr %6, align 8, !tbaa !38
  %20 = load i32, ptr %7, align 4, !tbaa !4
  %21 = load i32, ptr %8, align 4, !tbaa !4
  %22 = load i32, ptr %9, align 4, !tbaa !4
  %23 = load i32, ptr %10, align 4, !tbaa !4
  call void @_Z26ImGui_ImplGlfw_KeyCallbackP10GLFWwindowiiii(ptr noundef %19, i32 noundef %20, i32 noundef %21, i32 noundef %22, i32 noundef %23)
  %24 = call noundef nonnull align 8 dereferenceable(2944) ptr @_ZN5ImGui5GetIOEv()
  %25 = getelementptr inbounds nuw %struct.ImGuiIO, ptr %24, i32 0, i32 45
  %26 = load i8, ptr %25, align 1, !tbaa !101, !range !35, !noundef !36
  %27 = trunc i8 %26 to i1
  br i1 %27, label %28, label %29

28:                                               ; preds = %5
  br label %117

29:                                               ; preds = %5
  %30 = load i32, ptr %9, align 4, !tbaa !4
  %31 = icmp eq i32 %30, 1
  br i1 %31, label %32, label %117

32:                                               ; preds = %29
  %33 = load i32, ptr %7, align 4, !tbaa !4
  switch i32 %33, label %106 [
    i32 256, label %34
    i32 263, label %36
    i32 262, label %46
    i32 264, label %56
    i32 265, label %66
    i32 268, label %76
    i32 82, label %77
    i32 79, label %78
    i32 80, label %79
    i32 91, label %84
    i32 93, label %93
    i32 258, label %101
  ]

34:                                               ; preds = %32
  %35 = load ptr, ptr @g_mainWindow, align 8, !tbaa !38
  call void @glfwSetWindowShouldClose(ptr noundef %35, i32 noundef 1)
  br label %116

36:                                               ; preds = %32
  %37 = load i32, ptr %10, align 4, !tbaa !4
  %38 = icmp eq i32 %37, 2
  br i1 %38, label %39, label %42

39:                                               ; preds = %36
  call void @llvm.lifetime.start.p0(i64 8, ptr %11) #14
  call void @llvm.memcpy.p0.p0.i64(ptr align 4 %11, ptr align 4 @__const._ZL11KeyCallbackP10GLFWwindowiiii.newOrigin, i64 8, i1 false)
  %40 = load ptr, ptr @_ZL8s_sample, align 8, !tbaa !62
  call void @llvm.memcpy.p0.p0.i64(ptr align 4 %12, ptr align 4 %11, i64 8, i1 false), !tbaa.struct !102
  %41 = load <2 x float>, ptr %12, align 4
  call void @_ZN6Sample11ShiftOriginE6b2Vec2(ptr noundef nonnull align 8 dereferenceable(248) %40, <2 x float> %41)
  call void @llvm.lifetime.end.p0(i64 8, ptr %11) #14
  br label %45

42:                                               ; preds = %36
  %43 = load float, ptr @g_camera, align 4, !tbaa !93
  %44 = fsub float %43, 5.000000e-01
  store float %44, ptr @g_camera, align 4, !tbaa !93
  br label %45

45:                                               ; preds = %42, %39
  br label %116

46:                                               ; preds = %32
  %47 = load i32, ptr %10, align 4, !tbaa !4
  %48 = icmp eq i32 %47, 2
  br i1 %48, label %49, label %52

49:                                               ; preds = %46
  call void @llvm.lifetime.start.p0(i64 8, ptr %13) #14
  call void @llvm.memcpy.p0.p0.i64(ptr align 4 %13, ptr align 4 @__const._ZL11KeyCallbackP10GLFWwindowiiii.newOrigin.12, i64 8, i1 false)
  %50 = load ptr, ptr @_ZL8s_sample, align 8, !tbaa !62
  call void @llvm.memcpy.p0.p0.i64(ptr align 4 %14, ptr align 4 %13, i64 8, i1 false), !tbaa.struct !102
  %51 = load <2 x float>, ptr %14, align 4
  call void @_ZN6Sample11ShiftOriginE6b2Vec2(ptr noundef nonnull align 8 dereferenceable(248) %50, <2 x float> %51)
  call void @llvm.lifetime.end.p0(i64 8, ptr %13) #14
  br label %55

52:                                               ; preds = %46
  %53 = load float, ptr @g_camera, align 4, !tbaa !93
  %54 = fadd float %53, 5.000000e-01
  store float %54, ptr @g_camera, align 4, !tbaa !93
  br label %55

55:                                               ; preds = %52, %49
  br label %116

56:                                               ; preds = %32
  %57 = load i32, ptr %10, align 4, !tbaa !4
  %58 = icmp eq i32 %57, 2
  br i1 %58, label %59, label %62

59:                                               ; preds = %56
  call void @llvm.lifetime.start.p0(i64 8, ptr %15) #14
  call void @llvm.memcpy.p0.p0.i64(ptr align 4 %15, ptr align 4 @__const._ZL11KeyCallbackP10GLFWwindowiiii.newOrigin.13, i64 8, i1 false)
  %60 = load ptr, ptr @_ZL8s_sample, align 8, !tbaa !62
  call void @llvm.memcpy.p0.p0.i64(ptr align 4 %16, ptr align 4 %15, i64 8, i1 false), !tbaa.struct !102
  %61 = load <2 x float>, ptr %16, align 4
  call void @_ZN6Sample11ShiftOriginE6b2Vec2(ptr noundef nonnull align 8 dereferenceable(248) %60, <2 x float> %61)
  call void @llvm.lifetime.end.p0(i64 8, ptr %15) #14
  br label %65

62:                                               ; preds = %56
  %63 = load float, ptr getelementptr inbounds nuw (%struct.b2Vec2, ptr @g_camera, i32 0, i32 1), align 4, !tbaa !94
  %64 = fsub float %63, 5.000000e-01
  store float %64, ptr getelementptr inbounds nuw (%struct.b2Vec2, ptr @g_camera, i32 0, i32 1), align 4, !tbaa !94
  br label %65

65:                                               ; preds = %62, %59
  br label %116

66:                                               ; preds = %32
  %67 = load i32, ptr %10, align 4, !tbaa !4
  %68 = icmp eq i32 %67, 2
  br i1 %68, label %69, label %72

69:                                               ; preds = %66
  call void @llvm.lifetime.start.p0(i64 8, ptr %17) #14
  call void @llvm.memcpy.p0.p0.i64(ptr align 4 %17, ptr align 4 @__const._ZL11KeyCallbackP10GLFWwindowiiii.newOrigin.14, i64 8, i1 false)
  %70 = load ptr, ptr @_ZL8s_sample, align 8, !tbaa !62
  call void @llvm.memcpy.p0.p0.i64(ptr align 4 %18, ptr align 4 %17, i64 8, i1 false), !tbaa.struct !102
  %71 = load <2 x float>, ptr %18, align 4
  call void @_ZN6Sample11ShiftOriginE6b2Vec2(ptr noundef nonnull align 8 dereferenceable(248) %70, <2 x float> %71)
  call void @llvm.lifetime.end.p0(i64 8, ptr %17) #14
  br label %75

72:                                               ; preds = %66
  %73 = load float, ptr getelementptr inbounds nuw (%struct.b2Vec2, ptr @g_camera, i32 0, i32 1), align 4, !tbaa !94
  %74 = fadd float %73, 5.000000e-01
  store float %74, ptr getelementptr inbounds nuw (%struct.b2Vec2, ptr @g_camera, i32 0, i32 1), align 4, !tbaa !94
  br label %75

75:                                               ; preds = %72, %69
  br label %116

76:                                               ; preds = %32
  call void @_ZN6Camera9ResetViewEv(ptr noundef nonnull align 4 dereferenceable(20) @g_camera)
  br label %116

77:                                               ; preds = %32
  call void @_ZL13RestartSamplev()
  br label %116

78:                                               ; preds = %32
  store i8 1, ptr getelementptr inbounds nuw (%struct.Settings, ptr @_ZL10s_settings, i32 0, i32 24), align 2, !tbaa !103
  br label %116

79:                                               ; preds = %32
  %80 = load i8, ptr getelementptr inbounds nuw (%struct.Settings, ptr @_ZL10s_settings, i32 0, i32 23), align 1, !tbaa !104, !range !35, !noundef !36
  %81 = trunc i8 %80 to i1
  %82 = xor i1 %81, true
  %83 = zext i1 %82 to i8
  store i8 %83, ptr getelementptr inbounds nuw (%struct.Settings, ptr @_ZL10s_settings, i32 0, i32 23), align 1, !tbaa !104
  br label %116

84:                                               ; preds = %32
  %85 = load i32, ptr @_ZL11s_selection, align 4, !tbaa !4
  %86 = add nsw i32 %85, -1
  store i32 %86, ptr @_ZL11s_selection, align 4, !tbaa !4
  %87 = load i32, ptr @_ZL11s_selection, align 4, !tbaa !4
  %88 = icmp slt i32 %87, 0
  br i1 %88, label %89, label %92

89:                                               ; preds = %84
  %90 = load i32, ptr @g_sampleCount, align 4, !tbaa !4
  %91 = sub nsw i32 %90, 1
  store i32 %91, ptr @_ZL11s_selection, align 4, !tbaa !4
  br label %92

92:                                               ; preds = %89, %84
  br label %116

93:                                               ; preds = %32
  %94 = load i32, ptr @_ZL11s_selection, align 4, !tbaa !4
  %95 = add nsw i32 %94, 1
  store i32 %95, ptr @_ZL11s_selection, align 4, !tbaa !4
  %96 = load i32, ptr @_ZL11s_selection, align 4, !tbaa !4
  %97 = load i32, ptr @g_sampleCount, align 4, !tbaa !4
  %98 = icmp eq i32 %96, %97
  br i1 %98, label %99, label %100

99:                                               ; preds = %93
  store i32 0, ptr @_ZL11s_selection, align 4, !tbaa !4
  br label %100

100:                                              ; preds = %99, %93
  br label %116

101:                                              ; preds = %32
  %102 = load i8, ptr @g_draw, align 8, !tbaa !66, !range !35, !noundef !36
  %103 = trunc i8 %102 to i1
  %104 = xor i1 %103, true
  %105 = zext i1 %104 to i8
  store i8 %105, ptr @g_draw, align 8, !tbaa !66
  br label %106

106:                                              ; preds = %32, %101
  %107 = load ptr, ptr @_ZL8s_sample, align 8, !tbaa !62
  %108 = icmp ne ptr %107, null
  br i1 %108, label %109, label %115

109:                                              ; preds = %106
  %110 = load ptr, ptr @_ZL8s_sample, align 8, !tbaa !62
  %111 = load i32, ptr %7, align 4, !tbaa !4
  %112 = load ptr, ptr %110, align 8, !tbaa !82
  %113 = getelementptr inbounds ptr, ptr %112, i64 4
  %114 = load ptr, ptr %113, align 8
  call void %114(ptr noundef nonnull align 8 dereferenceable(248) %110, i32 noundef %111)
  br label %115

115:                                              ; preds = %109, %106
  br label %116

116:                                              ; preds = %115, %100, %92, %79, %78, %77, %76, %75, %65, %55, %45, %34
  br label %117

117:                                              ; preds = %28, %116, %29
  ret void
}