; Function Attrs: mustprogress uwtable
define internal void @_ZL11KeyCallbackP10GLFWwindowiiii(ptr noundef %0, i32 noundef %1, i32 noundef %2, i32 noundef %3, i32 noundef %4) #12 {
  tail call void @_Z26ImGui_ImplGlfw_KeyCallbackP10GLFWwindowiiii(ptr noundef %0, i32 noundef %1, i32 noundef %2, i32 noundef %3, i32 noundef %4)
  %6 = tail call noundef nonnull align 8 dereferenceable(2944) ptr @_ZN5ImGui5GetIOEv()
  %7 = getelementptr inbounds nuw i8, ptr %6, i64 169
  %8 = load i8, ptr %7, align 1, !tbaa !99, !range !71, !noundef !72
  %9 = trunc nuw i8 %8 to i1
  %10 = icmp ne i32 %3, 1
  %or.cond.not = or i1 %10, %9
  br i1 %or.cond.not, label %80, label %11

11:                                               ; preds = %5
  switch i32 %1, label %74 [
    i32 256, label %12
    i32 263, label %14
    i32 262, label %21
    i32 264, label %28
    i32 265, label %35
    i32 268, label %42
    i32 82, label %43
    i32 79, label %55
    i32 80, label %56
    i32 91, label %59
    i32 93, label %66
    i32 258, label %71
  ]

12:                                               ; preds = %11
  %13 = load ptr, ptr @g_mainWindow, align 8, !tbaa !22
  tail call void @glfwSetWindowShouldClose(ptr noundef %13, i32 noundef 1)
  br label %80

14:                                               ; preds = %11
  %15 = icmp eq i32 %4, 2
  br i1 %15, label %16, label %18

16:                                               ; preds = %14
  %17 = load ptr, ptr @_ZL8s_sample, align 8, !tbaa !66
  tail call void @_ZN6Sample11ShiftOriginE6b2Vec2(ptr noundef nonnull align 8 dereferenceable(248) %17, <2 x float> <float 2.000000e+00, float 0.000000e+00>)
  br label %80

18:                                               ; preds = %14
  %19 = load float, ptr @g_camera, align 4, !tbaa !92
  %20 = fadd float %19, -5.000000e-01
  store float %20, ptr @g_camera, align 4, !tbaa !92
  br label %80

21:                                               ; preds = %11
  %22 = icmp eq i32 %4, 2
  br i1 %22, label %23, label %25

23:                                               ; preds = %21
  %24 = load ptr, ptr @_ZL8s_sample, align 8, !tbaa !66
  tail call void @_ZN6Sample11ShiftOriginE6b2Vec2(ptr noundef nonnull align 8 dereferenceable(248) %24, <2 x float> <float -2.000000e+00, float 0.000000e+00>)
  br label %80

25:                                               ; preds = %21
  %26 = load float, ptr @g_camera, align 4, !tbaa !92
  %27 = fadd float %26, 5.000000e-01
  store float %27, ptr @g_camera, align 4, !tbaa !92
  br label %80

28:                                               ; preds = %11
  %29 = icmp eq i32 %4, 2
  br i1 %29, label %30, label %32

30:                                               ; preds = %28
  %31 = load ptr, ptr @_ZL8s_sample, align 8, !tbaa !66
  tail call void @_ZN6Sample11ShiftOriginE6b2Vec2(ptr noundef nonnull align 8 dereferenceable(248) %31, <2 x float> <float 0.000000e+00, float 2.000000e+00>)
  br label %80

32:                                               ; preds = %28
  %33 = load float, ptr getelementptr inbounds nuw (i8, ptr @g_camera, i64 4), align 4, !tbaa !93
  %34 = fadd float %33, -5.000000e-01
  store float %34, ptr getelementptr inbounds nuw (i8, ptr @g_camera, i64 4), align 4, !tbaa !93
  br label %80

35:                                               ; preds = %11
  %36 = icmp eq i32 %4, 2
  br i1 %36, label %37, label %39

37:                                               ; preds = %35
  %38 = load ptr, ptr @_ZL8s_sample, align 8, !tbaa !66
  tail call void @_ZN6Sample11ShiftOriginE6b2Vec2(ptr noundef nonnull align 8 dereferenceable(248) %38, <2 x float> <float 0.000000e+00, float -2.000000e+00>)
  br label %80

39:                                               ; preds = %35
  %40 = load float, ptr getelementptr inbounds nuw (i8, ptr @g_camera, i64 4), align 4, !tbaa !93
  %41 = fadd float %40, 5.000000e-01
  store float %41, ptr getelementptr inbounds nuw (i8, ptr @g_camera, i64 4), align 4, !tbaa !93
  br label %80

42:                                               ; preds = %11
  tail call void @_ZN6Camera9ResetViewEv(ptr noundef nonnull align 4 dereferenceable(20) @g_camera)
  br label %80

43:                                               ; preds = %11
  %44 = load ptr, ptr @_ZL8s_sample, align 8, !tbaa !66
  %45 = icmp eq ptr %44, null
  br i1 %45, label %_ZL13RestartSamplev.exit, label %46

46:                                               ; preds = %43
  %47 = load ptr, ptr %44, align 8, !tbaa !75
  %48 = getelementptr inbounds nuw i8, ptr %47, i64 8
  %49 = load ptr, ptr %48, align 8
  tail call void %49(ptr noundef nonnull align 8 dereferenceable(248) %44) #21
  br label %_ZL13RestartSamplev.exit

_ZL13RestartSamplev.exit:                         ; preds = %43, %46
  store ptr null, ptr @_ZL8s_sample, align 8, !tbaa !66
  store i8 1, ptr getelementptr inbounds nuw (i8, ptr @_ZL10s_settings, i64 43), align 1, !tbaa !77
  %50 = load i32, ptr @_ZL10s_settings, align 4, !tbaa !56
  %51 = sext i32 %50 to i64
  %52 = getelementptr inbounds [256 x %struct.SampleEntry], ptr @g_sampleEntries, i64 0, i64 %51, i32 2
  %53 = load ptr, ptr %52, align 8, !tbaa !68
  %54 = tail call noundef ptr %53(ptr noundef nonnull align 4 dereferenceable(44) @_ZL10s_settings)
  store ptr %54, ptr @_ZL8s_sample, align 8, !tbaa !66
  store i8 0, ptr getelementptr inbounds nuw (i8, ptr @_ZL10s_settings, i64 43), align 1, !tbaa !77
  br label %80

55:                                               ; preds = %11
  store i8 1, ptr getelementptr inbounds nuw (i8, ptr @_ZL10s_settings, i64 42), align 2, !tbaa !79
  br label %80

56:                                               ; preds = %11
  %57 = load i8, ptr getelementptr inbounds nuw (i8, ptr @_ZL10s_settings, i64 41), align 1, !tbaa !78, !range !71, !noundef !72
  %58 = xor i8 %57, 1
  store i8 %58, ptr getelementptr inbounds nuw (i8, ptr @_ZL10s_settings, i64 41), align 1, !tbaa !78
  br label %80

59:                                               ; preds = %11
  %60 = load i32, ptr @_ZL11s_selection, align 4, !tbaa !14
  %61 = add nsw i32 %60, -1
  store i32 %61, ptr @_ZL11s_selection, align 4, !tbaa !14
  %62 = icmp slt i32 %60, 1
  br i1 %62, label %63, label %80

63:                                               ; preds = %59
  %64 = load i32, ptr @g_sampleCount, align 4, !tbaa !14
  %65 = add nsw i32 %64, -1
  store i32 %65, ptr @_ZL11s_selection, align 4, !tbaa !14
  br label %80

66:                                               ; preds = %11
  %67 = load i32, ptr @_ZL11s_selection, align 4, !tbaa !14
  %68 = add nsw i32 %67, 1
  %69 = load i32, ptr @g_sampleCount, align 4, !tbaa !14
  %70 = icmp eq i32 %68, %69
  %spec.store.select = select i1 %70, i32 0, i32 %68
  store i32 %spec.store.select, ptr @_ZL11s_selection, align 4
  br label %80

71:                                               ; preds = %11
  %72 = load i8, ptr @g_draw, align 8, !tbaa !70, !range !71, !noundef !72
  %73 = xor i8 %72, 1
  store i8 %73, ptr @g_draw, align 8, !tbaa !70
  br label %74

74:                                               ; preds = %71, %11
  %75 = load ptr, ptr @_ZL8s_sample, align 8, !tbaa !66
  %.not = icmp eq ptr %75, null
  br i1 %.not, label %80, label %76

76:                                               ; preds = %74
  %77 = load ptr, ptr %75, align 8, !tbaa !75
  %78 = getelementptr inbounds nuw i8, ptr %77, i64 32
  %79 = load ptr, ptr %78, align 8
  tail call void %79(ptr noundef nonnull align 8 dereferenceable(248) %75, i32 noundef %1)
  br label %80

80:                                               ; preds = %12, %42, %_ZL13RestartSamplev.exit, %55, %56, %66, %18, %16, %25, %23, %32, %30, %39, %37, %63, %59, %76, %74, %5
  ret void
}